; Function Attrs: mustprogress nounwind uwtable
define hidden void @_ZN13EscapeBarrier12thread_addedEP10JavaThread(ptr noundef %0) local_unnamed_addr #1 align 2 {
  %2 = load ptr, ptr %0, align 8
  %3 = getelementptr inbounds i8, ptr %2, i64 80
  %4 = load ptr, ptr %3, align 8
  %5 = tail call noundef zeroext i1 %4(ptr noundef nonnull align 8 dereferenceable(888) %0) #9
  br i1 %5, label %_ZN11MutexLockerD2Ev.exit, label %6

6:                                                ; preds = %1
  %7 = load ptr, ptr @EscapeBarrier_lock, align 8
  %.not.i.i = icmp eq ptr %7, null
  br i1 %.not.i.i, label %_ZN11MutexLockerC2EP5MutexNS0_18SafepointCheckFlagE.exit, label %8

8:                                                ; preds = %6
  tail call void @_ZN5Mutex28lock_without_safepoint_checkEv(ptr noundef nonnull align 8 dereferenceable(104) %7) #9
  br label %_ZN11MutexLockerC2EP5MutexNS0_18SafepointCheckFlagE.exit

_ZN11MutexLockerC2EP5MutexNS0_18SafepointCheckFlagE.exit: ; preds = %6, %8
  %9 = load i8, ptr @_ZN13EscapeBarrier37_deoptimizing_objects_for_all_threadsE, align 1
  %10 = trunc i8 %9 to i1
  br i1 %10, label %11, label %_ZN10JavaThread18set_obj_deopt_flagEv.exit

11:                                               ; preds = %_ZN11MutexLockerC2EP5MutexNS0_18SafepointCheckFlagE.exit
  %12 = getelementptr inbounds i8, ptr %0, i64 1088
  br label %13

13:                                               ; preds = %13, %11
  %14 = load volatile i32, ptr %12, align 8
  %15 = or i32 %14, 8
  %16 = tail call noundef i32 asm sideeffect "lock cmpxchgl $1,($3)", "={ax},r,{ax},r,~{cc},~{memory},~{dirflag},~{fpsr},~{flags}"(i32 %15, i32 %14, ptr nonnull %12) #9, !srcloc !29
  %.not.i.i2 = icmp eq i32 %16, %14
  br i1 %.not.i.i2, label %_ZN10JavaThread18set_obj_deopt_flagEv.exit, label %13, !llvm.loop !30

_ZN10JavaThread18set_obj_deopt_flagEv.exit:       ; preds = %13, %_ZN11MutexLockerC2EP5MutexNS0_18SafepointCheckFlagE.exit
  br i1 %.not.i.i, label %_ZN11MutexLockerD2Ev.exit, label %17

17:                                               ; preds = %_ZN10JavaThread18set_obj_deopt_flagEv.exit
  tail call void @_ZN5Mutex6unlockEv(ptr noundef nonnull align 8 dereferenceable(104) %7) #9
  br label %_ZN11MutexLockerD2Ev.exit

_ZN11MutexLockerD2Ev.exit:                        ; preds = %17, %_ZN10JavaThread18set_obj_deopt_flagEv.exit, %1
  ret void
}